target datalayout = "e-m:e-p270:32:32-p271:32:32-p272:64:64-i64:64-i128:128-f80:128-n8:16:32:64-S128"
target triple = "x86_64-pc-linux-gnu"

; Function Attrs: nounwind uwtable
define internal void @scatter_partial_float_2(ptr noundef %0, ptr noundef %1, i64 noundef %2, i64 noundef %3, i64 noundef %4, i64 noundef %5) #0 {
  %7 = alloca ptr, align 8
  %8 = alloca ptr, align 8
  %9 = alloca i64, align 8
  %10 = alloca i64, align 8
  %11 = alloca i64, align 8
  %12 = alloca i64, align 8
  %13 = alloca i64, align 8
  %14 = alloca i64, align 8
  store ptr %0, ptr %7, align 8, !tbaa !8
  store ptr %1, ptr %8, align 8, !tbaa !8
  store i64 %2, ptr %9, align 8, !tbaa !30
  store i64 %3, ptr %10, align 8, !tbaa !30
  store i64 %4, ptr %11, align 8, !tbaa !30
  store i64 %5, ptr %12, align 8, !tbaa !30
  call void @llvm.lifetime.start.p0(i64 8, ptr %13) #5
  call void @llvm.lifetime.start.p0(i64 8, ptr %14) #5
  store i64 0, ptr %14, align 8, !tbaa !30
  br label %15

15:                                               ; preds = %37, %6
  %16 = load i64, ptr %14, align 8, !tbaa !30
  %17 = load i64, ptr %10, align 8, !tbaa !30
  %18 = icmp ult i64 %16, %17
  br i1 %18, label %19, label %51

19:                                               ; preds = %15
  store i64 0, ptr %13, align 8, !tbaa !30
  br label %20

20:                                               ; preds = %28, %19
  %21 = load i64, ptr %13, align 8, !tbaa !30
  %22 = load i64, ptr %9, align 8, !tbaa !30
  %23 = icmp ult i64 %21, %22
  br i1 %23, label %24, label %36

24:                                               ; preds = %20
  %25 = load ptr, ptr %7, align 8, !tbaa !8
  %26 = load float, ptr %25, align 4, !tbaa !19
  %27 = load ptr, ptr %8, align 8, !tbaa !8
  store float %26, ptr %27, align 4, !tbaa !19
  br label %28

28:                                               ; preds = %24
  %29 = load i64, ptr %13, align 8, !tbaa !30
  %30 = add i64 %29, 1
  store i64 %30, ptr %13, align 8, !tbaa !30
  %31 = load i64, ptr %11, align 8, !tbaa !30
  %32 = load ptr, ptr %8, align 8, !tbaa !8
  %33 = getelementptr inbounds float, ptr %32, i64 %31
  store ptr %33, ptr %8, align 8, !tbaa !8
  %34 = load ptr, ptr %7, align 8, !tbaa !8
  %35 = getelementptr inbounds nuw float, ptr %34, i32 1
  store ptr %35, ptr %7, align 8, !tbaa !8
  br label %20

36:                                               ; preds = %20
  br label %37

37:                                               ; preds = %36
  %38 = load i64, ptr %14, align 8, !tbaa !30
  %39 = add i64 %38, 1
  store i64 %39, ptr %14, align 8, !tbaa !30
  %40 = load i64, ptr %12, align 8, !tbaa !30
  %41 = load i64, ptr %9, align 8, !tbaa !30
  %42 = load i64, ptr %11, align 8, !tbaa !30
  %43 = mul nsw i64 %41, %42
  %44 = sub nsw i64 %40, %43
  %45 = load ptr, ptr %8, align 8, !tbaa !8
  %46 = getelementptr inbounds float, ptr %45, i64 %44
  store ptr %46, ptr %8, align 8, !tbaa !8
  %47 = load i64, ptr %9, align 8, !tbaa !30
  %48 = sub i64 4, %47
  %49 = load ptr, ptr %7, align 8, !tbaa !8
  %50 = getelementptr inbounds nuw float, ptr %49, i64 %48
  store ptr %50, ptr %7, align 8, !tbaa !8
  br label %15

51:                                               ; preds = %15
  call void @llvm.lifetime.end.p0(i64 8, ptr %14) #5
  call void @llvm.lifetime.end.p0(i64 8, ptr %13) #5
  ret void
}

; Function Attrs: nounwind uwtable
define i64 @zfp_decode_partial_block_strided_float_2(ptr noundef %0, ptr noundef %1, i64 noundef %2, i64 noundef %3, i64 noundef %4, i64 noundef %5) #0 {
  %7 = alloca ptr, align 8
  %8 = alloca ptr, align 8
  %9 = alloca i64, align 8
  %10 = alloca i64, align 8
  %11 = alloca i64, align 8
  %12 = alloca i64, align 8
  %13 = alloca [16 x float], align 256
  %14 = alloca i64, align 8
  store ptr %0, ptr %7, align 8, !tbaa !4
  store ptr %1, ptr %8, align 8, !tbaa !8
  store i64 %2, ptr %9, align 8, !tbaa !30
  store i64 %3, ptr %10, align 8, !tbaa !30
  store i64 %4, ptr %11, align 8, !tbaa !30
  store i64 %5, ptr %12, align 8, !tbaa !30
  call void @llvm.lifetime.start.p0(i64 64, ptr %13) #5
  call void @llvm.lifetime.start.p0(i64 8, ptr %14) #5
  %15 = load ptr, ptr %7, align 8, !tbaa !4
  %16 = getelementptr inbounds [16 x float], ptr %13, i64 0, i64 0
  %17 = call i64 @zfp_decode_block_float_2(ptr noundef %15, ptr noundef %16)
  store i64 %17, ptr %14, align 8, !tbaa !30
  %18 = getelementptr inbounds [16 x float], ptr %13, i64 0, i64 0
  %19 = load ptr, ptr %8, align 8, !tbaa !8
  %20 = load i64, ptr %9, align 8, !tbaa !30
  %21 = load i64, ptr %10, align 8, !tbaa !30
  %22 = load i64, ptr %11, align 8, !tbaa !30
  %23 = load i64, ptr %12, align 8, !tbaa !30
  call void @scatter_partial_float_2(ptr noundef %18, ptr noundef %19, i64 noundef %20, i64 noundef %21, i64 noundef %22, i64 noundef %23)
  %24 = load i64, ptr %14, align 8, !tbaa !30
  call void @llvm.lifetime.end.p0(i64 8, ptr %14) #5
  call void @llvm.lifetime.end.p0(i64 64, ptr %13) #5
  ret i64 %24
}